target datalayout = "e-m:e-p270:32:32-p271:32:32-p272:64:64-i64:64-i128:128-f80:128-n8:16:32:64-S128"
target triple = "x86_64-pc-linux-gnu"

%struct.DdManager = type { %struct.DdNode, ptr, ptr, ptr, ptr, ptr, ptr, ptr, i32, i32, double, double, double, i32, i32, i32, i32, i32, i32, ptr, ptr, %struct.DdSubtable, i32, i32, i32, i32, i32, i32, i32, double, i32, i32, i32, ptr, i64, double, i32, ptr, ptr, ptr, ptr, ptr, ptr, ptr, i32, ptr, ptr, ptr, ptr, ptr, ptr, i32, i32, i32, double, i32, i32, i32, i32, double, double, i32, i32, i32, i32, i32, i32, i32, i32, i32, ptr, ptr, i32, i32, i32, i32, i32, i32, ptr, ptr, ptr, ptr, ptr, ptr, ptr, ptr, i32, i64, i64, i64, i32, i64, i64, double, double, double, double, double, double, i32, ptr, ptr, i64 }
%struct.DdNode = type { i32, i32, ptr, %union.anon, i64 }
%union.anon = type { %struct.DdChildren }
%struct.DdChildren = type { ptr, ptr }
%struct.DdSubtable = type { ptr, i32, i32, i32, i32, i32, i32, i32, i32, i32, i32, i32 }
%struct.timespec = type { i64, i64 }

@s_Terminal = internal global ptr null, align 8
@s_EncodingVarsLevel = internal global i32 0, align 4
@s_BackTracks = internal global i32 0, align 4
@s_Field = internal global [8 x [256 x ptr]] zeroinitializer, align 16
@s_nVarsBest = internal global i32 0, align 4
@s_Encoded = internal global ptr null, align 8
@s_VarAll = internal global ptr null, align 8
@s_MultiStart = internal global i32 0, align 4
@s_pbTemp = internal global ptr null, align 8

; Function Attrs: inlinehint nounwind uwtable
define internal i64 @Abc_Clock() #5 {
  %1 = alloca i64, align 8
  %2 = alloca %struct.timespec, align 8
  %3 = alloca i32, align 4
  %4 = alloca i64, align 8
  call void @llvm.lifetime.start.p0(i64 16, ptr %2) #6
  %5 = call i32 @clock_gettime(i32 noundef 1, ptr noundef %2) #6
  %6 = icmp slt i32 %5, 0
  br i1 %6, label %7, label %8

7:                                                ; preds = %0
  store i64 -1, ptr %1, align 8
  store i32 1, ptr %3, align 4
  br label %19

8:                                                ; preds = %0
  call void @llvm.lifetime.start.p0(i64 8, ptr %4) #6
  %9 = getelementptr inbounds nuw %struct.timespec, ptr %2, i32 0, i32 0
  %10 = load i64, ptr %9, align 8, !tbaa !75
  %11 = mul nsw i64 %10, 1000000
  store i64 %11, ptr %4, align 8, !tbaa !34
  %12 = getelementptr inbounds nuw %struct.timespec, ptr %2, i32 0, i32 1
  %13 = load i64, ptr %12, align 8, !tbaa !77
  %14 = mul nsw i64 %13, 1000000
  %15 = sdiv i64 %14, 1000000000
  %16 = load i64, ptr %4, align 8, !tbaa !34
  %17 = add nsw i64 %16, %15
  store i64 %17, ptr %4, align 8, !tbaa !34
  %18 = load i64, ptr %4, align 8, !tbaa !34
  store i64 %18, ptr %1, align 8
  store i32 1, ptr %3, align 4
  call void @llvm.lifetime.end.p0(i64 8, ptr %4) #6
  br label %19

19:                                               ; preds = %8, %7
  call void @llvm.lifetime.end.p0(i64 16, ptr %2) #6
  %20 = load i64, ptr %1, align 8
  ret i64 %20
}

; Function Attrs: nounwind uwtable
define ptr @Extra_bddEncodingNonStrict(ptr noundef %0, ptr noundef %1, i32 noundef %2, ptr noundef %3, ptr noundef %4, i32 noundef %5, ptr noundef %6) #0 {
  %8 = alloca ptr, align 8
  %9 = alloca ptr, align 8
  %10 = alloca i32, align 4
  %11 = alloca ptr, align 8
  %12 = alloca ptr, align 8
  %13 = alloca i32, align 4
  %14 = alloca ptr, align 8
  %15 = alloca ptr, align 8
  %16 = alloca ptr, align 8
  %17 = alloca i32, align 4
  %18 = alloca i64, align 8
  store ptr %0, ptr %8, align 8, !tbaa !3
  store ptr %1, ptr %9, align 8, !tbaa !8
  store i32 %2, ptr %10, align 4, !tbaa !10
  store ptr %3, ptr %11, align 8, !tbaa !28
  store ptr %4, ptr %12, align 8, !tbaa !8
  store i32 %5, ptr %13, align 4, !tbaa !10
  store ptr %6, ptr %14, align 8, !tbaa !31
  call void @llvm.lifetime.start.p0(i64 8, ptr %15) #6
  call void @llvm.lifetime.start.p0(i64 8, ptr %16) #6
  call void @llvm.lifetime.start.p0(i64 4, ptr %17) #6
  %19 = load ptr, ptr %8, align 8, !tbaa !3
  %20 = load ptr, ptr %11, align 8, !tbaa !28
  %21 = call i32 @Cudd_SupportSize(ptr noundef %19, ptr noundef %20)
  store i32 %21, ptr %17, align 4, !tbaa !10
  call void @llvm.lifetime.start.p0(i64 8, ptr %18) #6
  %22 = load ptr, ptr %8, align 8, !tbaa !3
  %23 = load ptr, ptr %9, align 8, !tbaa !8
  %24 = load i32, ptr %10, align 4, !tbaa !10
  %25 = load ptr, ptr %12, align 8, !tbaa !8
  %26 = load i32, ptr %13, align 4, !tbaa !10
  %27 = call ptr @Extra_bddEncodingBinary(ptr noundef %22, ptr noundef %23, i32 noundef %24, ptr noundef %25, i32 noundef %26)
  store ptr %27, ptr %15, align 8, !tbaa !28
  %28 = load ptr, ptr %15, align 8, !tbaa !28
  call void @Cudd_Ref(ptr noundef %28)
  %29 = load ptr, ptr %8, align 8, !tbaa !3
  %30 = getelementptr inbounds nuw %struct.DdManager, ptr %29, i32 0, i32 1
  %31 = load ptr, ptr %30, align 8, !tbaa !12
  %32 = ptrtoint ptr %31 to i64
  %33 = xor i64 %32, 1
  %34 = inttoptr i64 %33 to ptr
  store ptr %34, ptr @s_Terminal, align 8, !tbaa !28
  %35 = load ptr, ptr %8, align 8, !tbaa !3
  %36 = getelementptr inbounds nuw %struct.DdManager, ptr %35, i32 0, i32 39
  %37 = load ptr, ptr %36, align 8, !tbaa !32
  %38 = load ptr, ptr %12, align 8, !tbaa !8
  %39 = getelementptr inbounds ptr, ptr %38, i64 0
  %40 = load ptr, ptr %39, align 8, !tbaa !28
  %41 = getelementptr inbounds nuw %struct.DdNode, ptr %40, i32 0, i32 0
  %42 = load i32, ptr %41, align 8, !tbaa !33
  %43 = zext i32 %42 to i64
  %44 = getelementptr inbounds nuw i32, ptr %37, i64 %43
  %45 = load i32, ptr %44, align 4, !tbaa !10
  store i32 %45, ptr @s_EncodingVarsLevel, align 4, !tbaa !10
  store i32 0, ptr @s_BackTracks, align 4, !tbaa !10
  %46 = load ptr, ptr %8, align 8, !tbaa !3
  %47 = getelementptr inbounds nuw %struct.DdManager, ptr %46, i32 0, i32 1
  %48 = load ptr, ptr %47, align 8, !tbaa !12
  store ptr %48, ptr @s_Field, align 16, !tbaa !28
  store i32 0, ptr @s_nVarsBest, align 4, !tbaa !10
  %49 = load ptr, ptr %15, align 8, !tbaa !28
  store ptr %49, ptr @s_Encoded, align 8, !tbaa !28
  %50 = load ptr, ptr %11, align 8, !tbaa !28
  store ptr %50, ptr @s_VarAll, align 8, !tbaa !28
  %51 = load i32, ptr %13, align 4, !tbaa !10
  store i32 %51, ptr @s_MultiStart, align 4, !tbaa !10
  %52 = call i64 @Abc_Clock()
  store i64 %52, ptr %18, align 8, !tbaa !34
  %53 = load i32, ptr %10, align 4, !tbaa !10
  %54 = icmp sgt i32 %53, 2
  br i1 %54, label %55, label %60

55:                                               ; preds = %7
  %56 = load ptr, ptr %8, align 8, !tbaa !3
  %57 = load ptr, ptr %11, align 8, !tbaa !28
  %58 = load i32, ptr %17, align 4, !tbaa !10
  %59 = load i32, ptr %13, align 4, !tbaa !10
  call void @EvaluateEncodings_rec(ptr noundef %56, ptr noundef %57, i32 noundef %58, i32 noundef %59, i32 noundef 1)
  br label %60

60:                                               ; preds = %55, %7
  %61 = load i32, ptr %10, align 4, !tbaa !10
  %62 = sext i32 %61 to i64
  %63 = mul i64 %62, 8
  %64 = mul i64 1, %63
  %65 = call noalias ptr @malloc(i64 noundef %64) #7
  store ptr %65, ptr @s_pbTemp, align 8, !tbaa !8
  %66 = load ptr, ptr %8, align 8, !tbaa !3
  %67 = load ptr, ptr %15, align 8, !tbaa !28
  %68 = load ptr, ptr %12, align 8, !tbaa !8
  %69 = call ptr @CreateTheCodes_rec(ptr noundef %66, ptr noundef %67, i32 noundef 0, ptr noundef %68)
  store ptr %69, ptr %16, align 8, !tbaa !28
  %70 = load ptr, ptr %16, align 8, !tbaa !28
  call void @Cudd_Ref(ptr noundef %70)
  %71 = load ptr, ptr %8, align 8, !tbaa !3
  %72 = load ptr, ptr %15, align 8, !tbaa !28
  call void @Cudd_RecursiveDeref(ptr noundef %71, ptr noundef %72)
  %73 = load ptr, ptr @s_pbTemp, align 8, !tbaa !8
  %74 = icmp ne ptr %73, null
  br i1 %74, label %75, label %77

75:                                               ; preds = %60
  %76 = load ptr, ptr @s_pbTemp, align 8, !tbaa !8
  call void @free(ptr noundef %76) #6
  store ptr null, ptr @s_pbTemp, align 8, !tbaa !8
  br label %78

77:                                               ; preds = %60
  br label %78

78:                                               ; preds = %77, %75
  %79 = load i32, ptr @s_nVarsBest, align 4, !tbaa !10
  %80 = load ptr, ptr %14, align 8, !tbaa !31
  store i32 %79, ptr %80, align 4, !tbaa !10
  %81 = load ptr, ptr %16, align 8, !tbaa !28
  call void @Cudd_Deref(ptr noundef %81)
  %82 = load ptr, ptr %16, align 8, !tbaa !28
  call void @llvm.lifetime.end.p0(i64 8, ptr %18) #6
  call void @llvm.lifetime.end.p0(i64 4, ptr %17) #6
  call void @llvm.lifetime.end.p0(i64 8, ptr %16) #6
  call void @llvm.lifetime.end.p0(i64 8, ptr %15) #6
  ret ptr %82
}