; Function Attrs: nounwind uwtable
define noundef ptr @Extra_bddEncodingNonStrict(ptr noundef %0, ptr noundef readonly captures(none) %1, i32 noundef %2, ptr noundef %3, ptr noundef %4, i32 noundef %5, ptr noundef writeonly captures(none) initializes((0, 4)) %6) local_unnamed_addr #0 {
Abc_Clock.exit:
  %7 = alloca %struct.timespec, align 8
  %8 = tail call i32 @Cudd_SupportSize(ptr noundef %0, ptr noundef %3) #11
  %9 = tail call ptr @Extra_bddEncodingBinary(ptr noundef %0, ptr noundef %1, i32 noundef %2, ptr noundef %4, i32 noundef %5)
  tail call void @Cudd_Ref(ptr noundef %9) #11
  %10 = getelementptr inbounds nuw i8, ptr %0, i64 40
  %11 = load ptr, ptr %10, align 8, !tbaa !3
  %12 = ptrtoint ptr %11 to i64
  %13 = xor i64 %12, 1
  %14 = inttoptr i64 %13 to ptr
  store ptr %14, ptr @s_Terminal, align 8, !tbaa !24
  %15 = getelementptr inbounds nuw i8, ptr %0, i64 328
  %16 = load ptr, ptr %15, align 8, !tbaa !27
  %17 = load ptr, ptr %4, align 8, !tbaa !24
  %18 = load i32, ptr %17, align 8, !tbaa !28
  %19 = zext i32 %18 to i64
  %20 = getelementptr inbounds nuw i32, ptr %16, i64 %19
  %21 = load i32, ptr %20, align 4, !tbaa !29
  store i32 %21, ptr @s_EncodingVarsLevel, align 4, !tbaa !29
  store i32 0, ptr @s_BackTracks, align 4, !tbaa !29
  store ptr %11, ptr @s_Field, align 16, !tbaa !24
  store i32 0, ptr @s_nVarsBest, align 4, !tbaa !29
  store ptr %9, ptr @s_Encoded, align 8, !tbaa !24
  store ptr %3, ptr @s_VarAll, align 8, !tbaa !24
  store i32 %5, ptr @s_MultiStart, align 4, !tbaa !29
  call void @llvm.lifetime.start.p0(i64 16, ptr nonnull %7) #11
  %22 = call i32 @clock_gettime(i32 noundef 1, ptr noundef nonnull %7) #11
  call void @llvm.lifetime.end.p0(i64 16, ptr nonnull %7) #11
  %23 = icmp sgt i32 %2, 2
  br i1 %23, label %24, label %25

24:                                               ; preds = %Abc_Clock.exit
  call fastcc void @EvaluateEncodings_rec(ptr noundef nonnull %0, ptr noundef %3, i32 noundef %8, i32 noundef %5, i32 noundef 1)
  br label %25

25:                                               ; preds = %24, %Abc_Clock.exit
  %26 = sext i32 %2 to i64
  %27 = shl nsw i64 %26, 3
  %28 = call noalias ptr @malloc(i64 noundef %27) #12
  store ptr %28, ptr @s_pbTemp, align 8, !tbaa !30
  %29 = call fastcc ptr @CreateTheCodes_rec(ptr noundef nonnull %0, ptr noundef %9, i32 noundef 0, ptr noundef nonnull %4)
  call void @Cudd_Ref(ptr noundef %29) #11
  call void @Cudd_RecursiveDeref(ptr noundef nonnull %0, ptr noundef %9) #11
  %30 = load ptr, ptr @s_pbTemp, align 8, !tbaa !30
  %.not = icmp eq ptr %30, null
  br i1 %.not, label %32, label %31

31:                                               ; preds = %25
  call void @free(ptr noundef nonnull %30) #11
  store ptr null, ptr @s_pbTemp, align 8, !tbaa !30
  br label %32

32:                                               ; preds = %25, %31
  %33 = load i32, ptr @s_nVarsBest, align 4, !tbaa !29
  store i32 %33, ptr %6, align 4, !tbaa !29
  call void @Cudd_Deref(ptr noundef %29) #11
  ret ptr %29
}